target datalayout = "e-m:e-p270:32:32-p271:32:32-p272:64:64-i64:64-i128:128-f80:128-n8:16:32:64-S128"
target triple = "x86_64-pc-linux-gnu"

@.str.1 = private unnamed_addr constant [37 x i8] c"../openssl/test/helpers/ssltestlib.c\00", align 1
@.str.41 = private unnamed_addr constant [31 x i8] c"serverssl = SSL_new(serverctx)\00", align 1
@.str.42 = private unnamed_addr constant [31 x i8] c"clientssl = SSL_new(clientctx)\00", align 1
@.str.57 = private unnamed_addr constant [45 x i8] c"s_to_c_bio = BIO_new(bio_s_mempacket_test())\00", align 1
@.str.58 = private unnamed_addr constant [45 x i8] c"c_to_s_bio = BIO_new(bio_s_mempacket_test())\00", align 1
@.str.59 = private unnamed_addr constant [34 x i8] c"s_to_c_bio = BIO_new(BIO_s_mem())\00", align 1
@.str.60 = private unnamed_addr constant [34 x i8] c"c_to_s_bio = BIO_new(BIO_s_mem())\00", align 1
@.str.61 = private unnamed_addr constant [47 x i8] c"s_to_c_bio = BIO_push(s_to_c_fbio, s_to_c_bio)\00", align 1
@.str.62 = private unnamed_addr constant [47 x i8] c"c_to_s_bio = BIO_push(c_to_s_fbio, c_to_s_bio)\00", align 1

; Function Attrs: nounwind uwtable
define dso_local i32 @create_ssl_objects(ptr noundef %0, ptr noundef %1, ptr noundef %2, ptr noundef %3, ptr noundef %4, ptr noundef %5) #0 {
  %7 = alloca i32, align 4
  %8 = alloca ptr, align 8
  %9 = alloca ptr, align 8
  %10 = alloca ptr, align 8
  %11 = alloca ptr, align 8
  %12 = alloca ptr, align 8
  %13 = alloca ptr, align 8
  %14 = alloca ptr, align 8
  %15 = alloca ptr, align 8
  %16 = alloca ptr, align 8
  %17 = alloca ptr, align 8
  %18 = alloca i32, align 4
  store ptr %0, ptr %8, align 8, !tbaa !61
  store ptr %1, ptr %9, align 8, !tbaa !61
  store ptr %2, ptr %10, align 8, !tbaa !77
  store ptr %3, ptr %11, align 8, !tbaa !77
  store ptr %4, ptr %12, align 8, !tbaa !9
  store ptr %5, ptr %13, align 8, !tbaa !9
  call void @llvm.lifetime.start.p0(i64 8, ptr %14) #10
  store ptr null, ptr %14, align 8, !tbaa !79
  call void @llvm.lifetime.start.p0(i64 8, ptr %15) #10
  store ptr null, ptr %15, align 8, !tbaa !79
  call void @llvm.lifetime.start.p0(i64 8, ptr %16) #10
  store ptr null, ptr %16, align 8, !tbaa !9
  call void @llvm.lifetime.start.p0(i64 8, ptr %17) #10
  store ptr null, ptr %17, align 8, !tbaa !9
  %19 = load ptr, ptr %10, align 8, !tbaa !77
  %20 = load ptr, ptr %19, align 8, !tbaa !79
  %21 = icmp ne ptr %20, null
  br i1 %21, label %22, label %25

22:                                               ; preds = %6
  %23 = load ptr, ptr %10, align 8, !tbaa !77
  %24 = load ptr, ptr %23, align 8, !tbaa !79
  store ptr %24, ptr %14, align 8, !tbaa !79
  br label %32

25:                                               ; preds = %6
  %26 = load ptr, ptr %8, align 8, !tbaa !61
  %27 = call ptr @SSL_new(ptr noundef %26)
  store ptr %27, ptr %14, align 8, !tbaa !79
  %28 = call i32 @test_ptr(ptr noundef @.str.1, i32 noundef 1164, ptr noundef @.str.41, ptr noundef %27)
  %29 = icmp ne i32 %28, 0
  br i1 %29, label %31, label %30

30:                                               ; preds = %25
  br label %113

31:                                               ; preds = %25
  br label %32

32:                                               ; preds = %31, %22
  %33 = load ptr, ptr %11, align 8, !tbaa !77
  %34 = load ptr, ptr %33, align 8, !tbaa !79
  %35 = icmp ne ptr %34, null
  br i1 %35, label %36, label %39

36:                                               ; preds = %32
  %37 = load ptr, ptr %11, align 8, !tbaa !77
  %38 = load ptr, ptr %37, align 8, !tbaa !79
  store ptr %38, ptr %15, align 8, !tbaa !79
  br label %46

39:                                               ; preds = %32
  %40 = load ptr, ptr %9, align 8, !tbaa !61
  %41 = call ptr @SSL_new(ptr noundef %40)
  store ptr %41, ptr %15, align 8, !tbaa !79
  %42 = call i32 @test_ptr(ptr noundef @.str.1, i32 noundef 1168, ptr noundef @.str.42, ptr noundef %41)
  %43 = icmp ne i32 %42, 0
  br i1 %43, label %45, label %44

44:                                               ; preds = %39
  br label %113

45:                                               ; preds = %39
  br label %46

46:                                               ; preds = %45, %36
  %47 = load ptr, ptr %15, align 8, !tbaa !79
  %48 = call i32 @SSL_is_dtls(ptr noundef %47)
  %49 = icmp ne i32 %48, 0
  br i1 %49, label %50, label %62

50:                                               ; preds = %46
  %51 = call ptr @bio_s_mempacket_test()
  %52 = call ptr @BIO_new(ptr noundef %51)
  store ptr %52, ptr %16, align 8, !tbaa !9
  %53 = call i32 @test_ptr(ptr noundef @.str.1, i32 noundef 1172, ptr noundef @.str.57, ptr noundef %52)
  %54 = icmp ne i32 %53, 0
  br i1 %54, label %55, label %60

55:                                               ; preds = %50
  %56 = call ptr @bio_s_mempacket_test()
  %57 = call ptr @BIO_new(ptr noundef %56)
  store ptr %57, ptr %17, align 8, !tbaa !9
  %58 = call i32 @test_ptr(ptr noundef @.str.1, i32 noundef 1173, ptr noundef @.str.58, ptr noundef %57)
  %59 = icmp ne i32 %58, 0
  br i1 %59, label %61, label %60

60:                                               ; preds = %55, %50
  br label %113

61:                                               ; preds = %55
  br label %74

62:                                               ; preds = %46
  %63 = call ptr @BIO_s_mem()
  %64 = call ptr @BIO_new(ptr noundef %63)
  store ptr %64, ptr %16, align 8, !tbaa !9
  %65 = call i32 @test_ptr(ptr noundef @.str.1, i32 noundef 1176, ptr noundef @.str.59, ptr noundef %64)
  %66 = icmp ne i32 %65, 0
  br i1 %66, label %67, label %72

67:                                               ; preds = %62
  %68 = call ptr @BIO_s_mem()
  %69 = call ptr @BIO_new(ptr noundef %68)
  store ptr %69, ptr %17, align 8, !tbaa !9
  %70 = call i32 @test_ptr(ptr noundef @.str.1, i32 noundef 1177, ptr noundef @.str.60, ptr noundef %69)
  %71 = icmp ne i32 %70, 0
  br i1 %71, label %73, label %72

72:                                               ; preds = %67, %62
  br label %113

73:                                               ; preds = %67
  br label %74

74:                                               ; preds = %73, %61
  %75 = load ptr, ptr %12, align 8, !tbaa !9
  %76 = icmp ne ptr %75, null
  br i1 %76, label %77, label %84

77:                                               ; preds = %74
  %78 = load ptr, ptr %12, align 8, !tbaa !9
  %79 = load ptr, ptr %16, align 8, !tbaa !9
  %80 = call ptr @BIO_push(ptr noundef %78, ptr noundef %79)
  store ptr %80, ptr %16, align 8, !tbaa !9
  %81 = call i32 @test_ptr(ptr noundef @.str.1, i32 noundef 1182, ptr noundef @.str.61, ptr noundef %80)
  %82 = icmp ne i32 %81, 0
  br i1 %82, label %84, label %83

83:                                               ; preds = %77
  br label %113

84:                                               ; preds = %77, %74
  %85 = load ptr, ptr %13, align 8, !tbaa !9
  %86 = icmp ne ptr %85, null
  br i1 %86, label %87, label %94

87:                                               ; preds = %84
  %88 = load ptr, ptr %13, align 8, !tbaa !9
  %89 = load ptr, ptr %17, align 8, !tbaa !9
  %90 = call ptr @BIO_push(ptr noundef %88, ptr noundef %89)
  store ptr %90, ptr %17, align 8, !tbaa !9
  %91 = call i32 @test_ptr(ptr noundef @.str.1, i32 noundef 1185, ptr noundef @.str.62, ptr noundef %90)
  %92 = icmp ne i32 %91, 0
  br i1 %92, label %94, label %93

93:                                               ; preds = %87
  br label %113

94:                                               ; preds = %87, %84
  %95 = load ptr, ptr %16, align 8, !tbaa !9
  %96 = call i64 @BIO_ctrl(ptr noundef %95, i32 noundef 130, i64 noundef -1, ptr noundef null)
  %97 = load ptr, ptr %17, align 8, !tbaa !9
  %98 = call i64 @BIO_ctrl(ptr noundef %97, i32 noundef 130, i64 noundef -1, ptr noundef null)
  %99 = load ptr, ptr %14, align 8, !tbaa !79
  %100 = load ptr, ptr %17, align 8, !tbaa !9
  %101 = load ptr, ptr %16, align 8, !tbaa !9
  call void @SSL_set_bio(ptr noundef %99, ptr noundef %100, ptr noundef %101)
  %102 = load ptr, ptr %16, align 8, !tbaa !9
  %103 = call i32 @BIO_up_ref(ptr noundef %102)
  %104 = load ptr, ptr %17, align 8, !tbaa !9
  %105 = call i32 @BIO_up_ref(ptr noundef %104)
  %106 = load ptr, ptr %15, align 8, !tbaa !79
  %107 = load ptr, ptr %16, align 8, !tbaa !9
  %108 = load ptr, ptr %17, align 8, !tbaa !9
  call void @SSL_set_bio(ptr noundef %106, ptr noundef %107, ptr noundef %108)
  %109 = load ptr, ptr %14, align 8, !tbaa !79
  %110 = load ptr, ptr %10, align 8, !tbaa !77
  store ptr %109, ptr %110, align 8, !tbaa !79
  %111 = load ptr, ptr %15, align 8, !tbaa !79
  %112 = load ptr, ptr %11, align 8, !tbaa !77
  store ptr %111, ptr %112, align 8, !tbaa !79
  store i32 1, ptr %7, align 4
  store i32 1, ptr %18, align 4
  br label %124

113:                                              ; preds = %93, %83, %72, %60, %44, %30
  %114 = load ptr, ptr %14, align 8, !tbaa !79
  call void @SSL_free(ptr noundef %114)
  %115 = load ptr, ptr %15, align 8, !tbaa !79
  call void @SSL_free(ptr noundef %115)
  %116 = load ptr, ptr %16, align 8, !tbaa !9
  %117 = call i32 @BIO_free(ptr noundef %116)
  %118 = load ptr, ptr %17, align 8, !tbaa !9
  %119 = call i32 @BIO_free(ptr noundef %118)
  %120 = load ptr, ptr %12, align 8, !tbaa !9
  %121 = call i32 @BIO_free(ptr noundef %120)
  %122 = load ptr, ptr %13, align 8, !tbaa !9
  %123 = call i32 @BIO_free(ptr noundef %122)
  store i32 0, ptr %7, align 4
  store i32 1, ptr %18, align 4
  br label %124

124:                                              ; preds = %113, %94
  call void @llvm.lifetime.end.p0(i64 8, ptr %17) #10
  call void @llvm.lifetime.end.p0(i64 8, ptr %16) #10
  call void @llvm.lifetime.end.p0(i64 8, ptr %15) #10
  call void @llvm.lifetime.end.p0(i64 8, ptr %14) #10
  %125 = load i32, ptr %7, align 4
  ret i32 %125
}