; Function Attrs: nounwind uwtable
define dso_local range(i32 0, 2) i32 @create_ssl_objects(ptr noundef %0, ptr noundef %1, ptr noundef captures(none) %2, ptr noundef captures(none) %3, ptr noundef %4, ptr noundef %5) local_unnamed_addr #0 {
  %7 = load ptr, ptr %2, align 8, !tbaa !61
  %.not = icmp eq ptr %7, null
  br i1 %.not, label %8, label %11

8:                                                ; preds = %6
  %9 = tail call ptr @SSL_new(ptr noundef %0) #14
  %10 = tail call i32 @test_ptr(ptr noundef nonnull @.str.1, i32 noundef 1164, ptr noundef nonnull @.str.41, ptr noundef %9) #14
  %.not45 = icmp eq i32 %10, 0
  br i1 %.not45, label %47, label %11

11:                                               ; preds = %6, %8
  %.038 = phi ptr [ %9, %8 ], [ %7, %6 ]
  %12 = load ptr, ptr %3, align 8, !tbaa !61
  %.not46 = icmp eq ptr %12, null
  br i1 %.not46, label %13, label %16

13:                                               ; preds = %11
  %14 = tail call ptr @SSL_new(ptr noundef %1) #14
  %15 = tail call i32 @test_ptr(ptr noundef nonnull @.str.1, i32 noundef 1168, ptr noundef nonnull @.str.42, ptr noundef %14) #14
  %.not47 = icmp eq i32 %15, 0
  br i1 %.not47, label %47, label %16

16:                                               ; preds = %11, %13
  %.137 = phi ptr [ %14, %13 ], [ %12, %11 ]
  %17 = tail call i32 @SSL_is_dtls(ptr noundef %.137) #14
  %.not48 = icmp eq i32 %17, 0
  br i1 %.not48, label %26, label %18

18:                                               ; preds = %16
  %19 = tail call ptr @bio_s_mempacket_test()
  %20 = tail call ptr @BIO_new(ptr noundef %19) #14
  %21 = tail call i32 @test_ptr(ptr noundef nonnull @.str.1, i32 noundef 1172, ptr noundef nonnull @.str.57, ptr noundef %20) #14
  %.not51 = icmp eq i32 %21, 0
  br i1 %.not51, label %47, label %22

22:                                               ; preds = %18
  %23 = tail call ptr @bio_s_mempacket_test()
  %24 = tail call ptr @BIO_new(ptr noundef %23) #14
  %25 = tail call i32 @test_ptr(ptr noundef nonnull @.str.1, i32 noundef 1173, ptr noundef nonnull @.str.58, ptr noundef %24) #14
  %.not52 = icmp eq i32 %25, 0
  br i1 %.not52, label %47, label %34

26:                                               ; preds = %16
  %27 = tail call ptr @BIO_s_mem() #14
  %28 = tail call ptr @BIO_new(ptr noundef %27) #14
  %29 = tail call i32 @test_ptr(ptr noundef nonnull @.str.1, i32 noundef 1176, ptr noundef nonnull @.str.59, ptr noundef %28) #14
  %.not49 = icmp eq i32 %29, 0
  br i1 %.not49, label %47, label %30

30:                                               ; preds = %26
  %31 = tail call ptr @BIO_s_mem() #14
  %32 = tail call ptr @BIO_new(ptr noundef %31) #14
  %33 = tail call i32 @test_ptr(ptr noundef nonnull @.str.1, i32 noundef 1177, ptr noundef nonnull @.str.60, ptr noundef %32) #14
  %.not50 = icmp eq i32 %33, 0
  br i1 %.not50, label %47, label %34

34:                                               ; preds = %30, %22
  %.134 = phi ptr [ %20, %22 ], [ %28, %30 ]
  %.1 = phi ptr [ %24, %22 ], [ %32, %30 ]
  %.not53 = icmp eq ptr %4, null
  br i1 %.not53, label %38, label %35

35:                                               ; preds = %34
  %36 = tail call ptr @BIO_push(ptr noundef nonnull %4, ptr noundef %.134) #14
  %37 = tail call i32 @test_ptr(ptr noundef nonnull @.str.1, i32 noundef 1182, ptr noundef nonnull @.str.61, ptr noundef %36) #14
  %.not54 = icmp eq i32 %37, 0
  br i1 %.not54, label %47, label %38

38:                                               ; preds = %35, %34
  %.235 = phi ptr [ %36, %35 ], [ %.134, %34 ]
  %.not55 = icmp eq ptr %5, null
  br i1 %.not55, label %42, label %39

39:                                               ; preds = %38
  %40 = tail call ptr @BIO_push(ptr noundef nonnull %5, ptr noundef %.1) #14
  %41 = tail call i32 @test_ptr(ptr noundef nonnull @.str.1, i32 noundef 1185, ptr noundef nonnull @.str.62, ptr noundef %40) #14
  %.not56 = icmp eq i32 %41, 0
  br i1 %.not56, label %47, label %42

42:                                               ; preds = %39, %38
  %.2 = phi ptr [ %40, %39 ], [ %.1, %38 ]
  %43 = tail call i64 @BIO_ctrl(ptr noundef %.235, i32 noundef 130, i64 noundef -1, ptr noundef null) #14
  %44 = tail call i64 @BIO_ctrl(ptr noundef %.2, i32 noundef 130, i64 noundef -1, ptr noundef null) #14
  tail call void @SSL_set_bio(ptr noundef %.038, ptr noundef %.2, ptr noundef %.235) #14
  %45 = tail call i32 @BIO_up_ref(ptr noundef %.235) #14
  %46 = tail call i32 @BIO_up_ref(ptr noundef %.2) #14
  tail call void @SSL_set_bio(ptr noundef %.137, ptr noundef %.235, ptr noundef %.2) #14
  store ptr %.038, ptr %2, align 8, !tbaa !61
  store ptr %.137, ptr %3, align 8, !tbaa !61
  br label %52

47:                                               ; preds = %39, %35, %26, %30, %18, %22, %13, %8
  %.139 = phi ptr [ %.038, %39 ], [ %.038, %35 ], [ %.038, %22 ], [ %.038, %18 ], [ %.038, %30 ], [ %.038, %26 ], [ %.038, %13 ], [ %9, %8 ]
  %.036 = phi ptr [ %.137, %39 ], [ %.137, %35 ], [ %.137, %22 ], [ %.137, %18 ], [ %.137, %30 ], [ %.137, %26 ], [ %14, %13 ], [ null, %8 ]
  %.033 = phi ptr [ %.235, %39 ], [ %36, %35 ], [ %20, %22 ], [ %20, %18 ], [ %28, %30 ], [ %28, %26 ], [ null, %13 ], [ null, %8 ]
  %.0 = phi ptr [ %40, %39 ], [ %.1, %35 ], [ %24, %22 ], [ null, %18 ], [ %32, %30 ], [ null, %26 ], [ null, %13 ], [ null, %8 ]
  tail call void @SSL_free(ptr noundef %.139) #14
  tail call void @SSL_free(ptr noundef %.036) #14
  %48 = tail call i32 @BIO_free(ptr noundef %.033) #14
  %49 = tail call i32 @BIO_free(ptr noundef %.0) #14
  %50 = tail call i32 @BIO_free(ptr noundef %4) #14
  %51 = tail call i32 @BIO_free(ptr noundef %5) #14
  br label %52

52:                                               ; preds = %47, %42
  %.040 = phi i32 [ 1, %42 ], [ 0, %47 ]
  ret i32 %.040
}